(i__main__
NBC
p0
(dp1
S'vocabulary'
p2
I36
sS'class_count'
p3
cnumpy.core.multiarray
_reconstruct
p4
(cnumpy
ndarray
p5
(I0
tp6
S'b'
p7
tp8
Rp9
(I1
(L1L
L2L
tp10
cnumpy
dtype
p11
(S'f8'
p12
I0
I1
tp13
Rp14
(I3
S'<'
p15
NNNI-1
I-1
I0
tp16
bI00
S'\x00\x00\x00\x00\x00\x00?@\x00\x00\x00\x00\x00\x00:@'
p17
tp18
bsS'class_freq'
p19
g4
(g5
(I0
tp20
g7
tp21
Rp22
(I1
(L1L
L2L
tp23
g14
I00
S'\x00\x00\x00\x00\x00\x00 @\x00\x00\x00\x00\x00\x00 @'
p24
tp25
bsS'classes'
p26
I2
sS'stemmer'
p27
ccopy_reg
_reconstructor
p28
(cnltk.stem.porter
PorterStemmer
p29
c__builtin__
object
p30
Ntp31
Rp32
(dp33
S'vowels'
p34
c__builtin__
frozenset
p35
((lp36
Va
p37
aVi
p38
aVe
p39
aVu
p40
aVo
p41
atp42
Rp43
sS'pool'
p44
(dp45
Vinnings
p46
Vinning
p47
sVexceed
p48
g48
sVproceed
p49
g49
sVdying
p50
Vdie
p51
sg47
g47
sVouting
p52
g52
sVsky
p53
g53
sVcannings
p54
Vcanning
p55
sVoutings
p56
g52
sVsucceed
p57
g57
sVskies
p58
g53
sVtying
p59
Vtie
p60
sVhowe
p61
g61
sVnews
p62
g62
sg55
g55
sVlying
p63
Vlie
p64
ssbsS'trainedOn'
p65
I16
sS'root'
p66
(iTrieNode
TrieNode
p67
(dp68
S'is_word'
p69
I00
sS'class_frequencies'
p70
g4
(g5
(I0
tp71
g7
tp72
Rp73
(I1
(L1L
L2L
tp74
g11
(S'i4'
p75
I0
I1
tp76
Rp77
(I3
S'<'
p78
NNNI-1
I-1
I0
tp79
bI00
S'\x00\x00\x00\x00\x00\x00\x00\x00'
p80
tp81
bsS'child'
p82
(dp83
Va
p84
(iTrieNode
TrieNode
p85
(dp86
g69
I01
sg70
g4
(g5
(I0
tp87
g7
tp88
Rp89
(I1
(L1L
L2L
tp90
g77
I00
S'\x00\x00\x00\x00\x01\x00\x00\x00'
p91
tp92
bsg82
(dp93
Vm
p94
(iTrieNode
TrieNode
p95
(dp96
g69
I01
sg70
g4
(g5
(I0
tp97
g7
tp98
Rp99
(I1
(L1L
L2L
tp100
g77
I00
S'\x03\x00\x00\x00\x00\x00\x00\x00'
p101
tp102
bsg82
(dp103
sbsVn
p104
(iTrieNode
TrieNode
p105
(dp106
g69
I00
sg70
g4
(g5
(I0
tp107
g7
tp108
Rp109
(I1
(L1L
L2L
tp110
g77
I00
S'\x00\x00\x00\x00\x00\x00\x00\x00'
p111
tp112
bsg82
(dp113
Vd
p114
(iTrieNode
TrieNode
p115
(dp116
g69
I01
sg70
g4
(g5
(I0
tp117
g7
tp118
Rp119
(I1
(L1L
L2L
tp120
g77
I00
S'\x01\x00\x00\x00\x00\x00\x00\x00'
p121
tp122
bsg82
(dp123
sbssbssbsVc
p124
(iTrieNode
TrieNode
p125
(dp126
g69
I00
sg70
g4
(g5
(I0
tp127
g7
tp128
Rp129
(I1
(L1L
L2L
tp130
g77
I00
S'\x00\x00\x00\x00\x00\x00\x00\x00'
p131
tp132
bsg82
(dp133
g84
(iTrieNode
TrieNode
p134
(dp135
g69
I00
sg70
g4
(g5
(I0
tp136
g7
tp137
Rp138
(I1
(L1L
L2L
tp139
g77
I00
S'\x00\x00\x00\x00\x00\x00\x00\x00'
p140
tp141
bsg82
(dp142
g104
(iTrieNode
TrieNode
p143
(dp144
g69
I01
sg70
g4
(g5
(I0
tp145
g7
tp146
Rp147
(I1
(L1L
L2L
tp148
g77
I00
S'\x01\x00\x00\x00\x00\x00\x00\x00'
p149
tp150
bsg82
(dp151
Vt
p152
(iTrieNode
TrieNode
p153
(dp154
g69
I01
sg70
g4
(g5
(I0
tp155
g7
tp156
Rp157
(I1
(L1L
L2L
tp158
g77
I00
S'\x01\x00\x00\x00\x00\x00\x00\x00'
p159
tp160
bsg82
(dp161
sbssbssbssbsVb
p162
(iTrieNode
TrieNode
p163
(dp164
g69
I00
sg70
g4
(g5
(I0
tp165
g7
tp166
Rp167
(I1
(L1L
L2L
tp168
g77
I00
S'\x00\x00\x00\x00\x00\x00\x00\x00'
p169
tp170
bsg82
(dp171
g84
(iTrieNode
TrieNode
p172
(dp173
g69
I00
sg70
g4
(g5
(I0
tp174
g7
tp175
Rp176
(I1
(L1L
L2L
tp177
g77
I00
S'\x00\x00\x00\x00\x00\x00\x00\x00'
p178
tp179
bsg82
(dp180
g114
(iTrieNode
TrieNode
p181
(dp182
g69
I01
sg70
g4
(g5
(I0
tp183
g7
tp184
Rp185
(I1
(L1L
L2L
tp186
g77
I00
S'\x01\x00\x00\x00\x01\x00\x00\x00'
p187
tp188
bsg82
(dp189
sbssbsVr
p190
(iTrieNode
TrieNode
p191
(dp192
g69
I00
sg70
g4
(g5
(I0
tp193
g7
tp194
Rp195
(I1
(L1L
L2L
tp196
g77
I00
S'\x00\x00\x00\x00\x00\x00\x00\x00'
p197
tp198
bsg82
(dp199
Ve
p200
(iTrieNode
TrieNode
p201
(dp202
g69
I00
sg70
g4
(g5
(I0
tp203
g7
tp204
Rp205
(I1
(L1L
L2L
tp206
g77
I00
S'\x00\x00\x00\x00\x00\x00\x00\x00'
p207
tp208
bsg82
(dp209
g84
(iTrieNode
TrieNode
p210
(dp211
g69
I00
sg70
g4
(g5
(I0
tp212
g7
tp213
Rp214
(I1
(L1L
L2L
tp215
g77
I00
S'\x00\x00\x00\x00\x00\x00\x00\x00'
p216
tp217
bsg82
(dp218
Vk
p219
(iTrieNode
TrieNode
p220
(dp221
g69
I00
sg70
g4
(g5
(I0
tp222
g7
tp223
Rp224
(I1
(L1L
L2L
tp225
g77
I00
S'\x00\x00\x00\x00\x00\x00\x00\x00'
p226
tp227
bsg82
(dp228
Vf
p229
(iTrieNode
TrieNode
p230
(dp231
g69
I00
sg70
g4
(g5
(I0
tp232
g7
tp233
Rp234
(I1
(L1L
L2L
tp235
g77
I00
S'\x00\x00\x00\x00\x00\x00\x00\x00'
p236
tp237
bsg82
(dp238
g84
(iTrieNode
TrieNode
p239
(dp240
g69
I00
sg70
g4
(g5
(I0
tp241
g7
tp242
Rp243
(I1
(L1L
L2L
tp244
g77
I00
S'\x00\x00\x00\x00\x00\x00\x00\x00'
p245
tp246
bsg82
(dp247
Vs
p248
(iTrieNode
TrieNode
p249
(dp250
g69
I00
sg70
g4
(g5
(I0
tp251
g7
tp252
Rp253
(I1
(L1L
L2L
tp254
g77
I00
S'\x00\x00\x00\x00\x00\x00\x00\x00'
p255
tp256
bsg82
(dp257
g152
(iTrieNode
TrieNode
p258
(dp259
g69
I01
sg70
g4
(g5
(I0
tp260
g7
tp261
Rp262
(I1
(L1L
L2L
tp263
g77
I00
S'\x00\x00\x00\x00\x02\x00\x00\x00'
p264
tp265
bsg82
(dp266
sbssbssbssbssbssbssbssbssbsg200
(iTrieNode
TrieNode
p267
(dp268
g69
I00
sg70
g4
(g5
(I0
tp269
g7
tp270
Rp271
(I1
(L1L
L2L
tp272
g77
I00
S'\x00\x00\x00\x00\x00\x00\x00\x00'
p273
tp274
bsg82
(dp275
Vv
p276
(iTrieNode
TrieNode
p277
(dp278
g69
I00
sg70
g4
(g5
(I0
tp279
g7
tp280
Rp281
(I1
(L1L
L2L
tp282
g77
I00
S'\x00\x00\x00\x00\x00\x00\x00\x00'
p283
tp284
bsg82
(dp285
g200
(iTrieNode
TrieNode
p286
(dp287
g69
I00
sg70
g4
(g5
(I0
tp288
g7
tp289
Rp290
(I1
(L1L
L2L
tp291
g77
I00
S'\x00\x00\x00\x00\x00\x00\x00\x00'
p292
tp293
bsg82
(dp294
g104
(iTrieNode
TrieNode
p295
(dp296
g69
I01
sg70
g4
(g5
(I0
tp297
g7
tp298
Rp299
(I1
(L1L
L2L
tp300
g77
I00
S'\x00\x00\x00\x00\x01\x00\x00\x00'
p301
tp302
bsg82
(dp303
sbssbssbssbsg114
(iTrieNode
TrieNode
p304
(dp305
g69
I00
sg70
g4
(g5
(I0
tp306
g7
tp307
Rp308
(I1
(L1L
L2L
tp309
g77
I00
S'\x00\x00\x00\x00\x00\x00\x00\x00'
p310
tp311
bsg82
(dp312
g84
(iTrieNode
TrieNode
p313
(dp314
g69
I00
sg70
g4
(g5
(I0
tp315
g7
tp316
Rp317
(I1
(L1L
L2L
tp318
g77
I00
S'\x00\x00\x00\x00\x00\x00\x00\x00'
p319
tp320
bsg82
(dp321
Vy
p322
(iTrieNode
TrieNode
p323
(dp324
g69
I01
sg70
g4
(g5
(I0
tp325
g7
tp326
Rp327
(I1
(L1L
L2L
tp328
g77
I00
S'\x00\x00\x00\x00\x01\x00\x00\x00'
p329
tp330
bsg82
(dp331
sbssbsVi
p332
(iTrieNode
TrieNode
p333
(dp334
g69
I00
sg70
g4
(g5
(I0
tp335
g7
tp336
Rp337
(I1
(L1L
L2L
tp338
g77
I00
S'\x00\x00\x00\x00\x00\x00\x00\x00'
p339
tp340
bsg82
(dp341
g276
(iTrieNode
TrieNode
p342
(dp343
g69
I00
sg70
g4
(g5
(I0
tp344
g7
tp345
Rp346
(I1
(L1L
L2L
tp347
g77
I00
S'\x00\x00\x00\x00\x00\x00\x00\x00'
p348
tp349
bsg82
(dp350
g332
(iTrieNode
TrieNode
p351
(dp352
g69
I00
sg70
g4
(g5
(I0
tp353
g7
tp354
Rp355
(I1
(L1L
L2L
tp356
g77
I00
S'\x00\x00\x00\x00\x00\x00\x00\x00'
p357
tp358
bsg82
(dp359
g114
(iTrieNode
TrieNode
p360
(dp361
g69
I01
sg70
g4
(g5
(I0
tp362
g7
tp363
Rp364
(I1
(L1L
L2L
tp365
g77
I00
S'\x01\x00\x00\x00\x00\x00\x00\x00'
p366
tp367
bsg82
(dp368
sbssbssbssbsg190
(iTrieNode
TrieNode
p369
(dp370
g69
I00
sg70
g4
(g5
(I0
tp371
g7
tp372
Rp373
(I1
(L1L
L2L
tp374
g77
I00
S'\x00\x00\x00\x00\x00\x00\x00\x00'
p375
tp376
bsg82
(dp377
g332
(iTrieNode
TrieNode
p378
(dp379
g69
I00
sg70
g4
(g5
(I0
tp380
g7
tp381
Rp382
(I1
(L1L
L2L
tp383
g77
I00
S'\x00\x00\x00\x00\x00\x00\x00\x00'
p384
tp385
bsg82
(dp386
g276
(iTrieNode
TrieNode
p387
(dp388
g69
I00
sg70
g4
(g5
(I0
tp389
g7
tp390
Rp391
(I1
(L1L
L2L
tp392
g77
I00
S'\x00\x00\x00\x00\x00\x00\x00\x00'
p393
tp394
bsg82
(dp395
g200
(iTrieNode
TrieNode
p396
(dp397
g69
I01
sg70
g4
(g5
(I0
tp398
g7
tp399
Rp400
(I1
(L1L
L2L
tp401
g77
I00
S'\x02\x00\x00\x00\x00\x00\x00\x00'
p402
tp403
bsg82
(dp404
sbssbssbssbsVo
p405
(iTrieNode
TrieNode
p406
(dp407
g69
I00
sg70
g4
(g5
(I0
tp408
g7
tp409
Rp410
(I1
(L1L
L2L
tp411
g77
I00
S'\x00\x00\x00\x00\x00\x00\x00\x00'
p412
tp413
bsg82
(dp414
g200
(iTrieNode
TrieNode
p415
(dp416
g69
I01
sg70
g4
(g5
(I0
tp417
g7
tp418
Rp419
(I1
(L1L
L2L
tp420
g77
I00
S'\x01\x00\x00\x00\x00\x00\x00\x00'
p421
tp422
bsg82
(dp423
sbssbssbsVg
p424
(iTrieNode
TrieNode
p425
(dp426
g69
I00
sg70
g4
(g5
(I0
tp427
g7
tp428
Rp429
(I1
(L1L
L2L
tp430
g77
I00
S'\x00\x00\x00\x00\x00\x00\x00\x00'
p431
tp432
bsg82
(dp433
g405
(iTrieNode
TrieNode
p434
(dp435
g69
I00
sg70
g4
(g5
(I0
tp436
g7
tp437
Rp438
(I1
(L1L
L2L
tp439
g77
I00
S'\x00\x00\x00\x00\x00\x00\x00\x00'
p440
tp441
bsg82
(dp442
g405
(iTrieNode
TrieNode
p443
(dp444
g69
I00
sg70
g4
(g5
(I0
tp445
g7
tp446
Rp447
(I1
(L1L
L2L
tp448
g77
I00
S'\x00\x00\x00\x00\x00\x00\x00\x00'
p449
tp450
bsg82
(dp451
g114
(iTrieNode
TrieNode
p452
(dp453
g69
I01
sg70
g4
(g5
(I0
tp454
g7
tp455
Rp456
(I1
(L1L
L2L
tp457
g77
I00
S'\x01\x00\x00\x00\x05\x00\x00\x00'
p458
tp459
bsg82
(dp460
sbssbssbssbsg229
(iTrieNode
TrieNode
p461
(dp462
g69
I00
sg70
g4
(g5
(I0
tp463
g7
tp464
Rp465
(I1
(L1L
L2L
tp466
g77
I00
S'\x00\x00\x00\x00\x00\x00\x00\x00'
p467
tp468
bsg82
(dp469
g200
(iTrieNode
TrieNode
p470
(dp471
g69
I00
sg70
g4
(g5
(I0
tp472
g7
tp473
Rp474
(I1
(L1L
L2L
tp475
g77
I00
S'\x00\x00\x00\x00\x00\x00\x00\x00'
p476
tp477
bsg82
(dp478
g200
(iTrieNode
TrieNode
p479
(dp480
g69
I00
sg70
g4
(g5
(I0
tp481
g7
tp482
Rp483
(I1
(L1L
L2L
tp484
g77
I00
S'\x00\x00\x00\x00\x00\x00\x00\x00'
p485
tp486
bsg82
(dp487
Vl
p488
(iTrieNode
TrieNode
p489
(dp490
g69
I01
sg70
g4
(g5
(I0
tp491
g7
tp492
Rp493
(I1
(L1L
L2L
tp494
g77
I00
S'\x00\x00\x00\x00\x01\x00\x00\x00'
p495
tp496
bsg82
(dp497
sbssbssbssbsg332
(iTrieNode
TrieNode
p498
(dp499
g69
I01
sg70
g4
(g5
(I0
tp500
g7
tp501
Rp502
(I1
(L1L
L2L
tp503
g77
I00
S'\x05\x00\x00\x00\x00\x00\x00\x00'
p504
tp505
bsg82
(dp506
g248
(iTrieNode
TrieNode
p507
(dp508
g69
I01
sg70
g4
(g5
(I0
tp509
g7
tp510
Rp511
(I1
(L1L
L2L
tp512
g77
I00
S'\x01\x00\x00\x00\x00\x00\x00\x00'
p513
tp514
bsg82
(dp515
sbsg152
(iTrieNode
TrieNode
p516
(dp517
g69
I01
sg70
g4
(g5
(I0
tp518
g7
tp519
Rp520
(I1
(L1L
L2L
tp521
g77
I00
S'\x00\x00\x00\x00\x01\x00\x00\x00'
p522
tp523
bsg82
(dp524
sbssbsVh
p525
(iTrieNode
TrieNode
p526
(dp527
g69
I00
sg70
g4
(g5
(I0
tp528
g7
tp529
Rp530
(I1
(L1L
L2L
tp531
g77
I00
S'\x00\x00\x00\x00\x00\x00\x00\x00'
p532
tp533
bsg82
(dp534
g84
(iTrieNode
TrieNode
p535
(dp536
g69
I00
sg70
g4
(g5
(I0
tp537
g7
tp538
Rp539
(I1
(L1L
L2L
tp540
g77
I00
S'\x00\x00\x00\x00\x00\x00\x00\x00'
p541
tp542
bsg82
(dp543
g276
(iTrieNode
TrieNode
p544
(dp545
g69
I00
sg70
g4
(g5
(I0
tp546
g7
tp547
Rp548
(I1
(L1L
L2L
tp549
g77
I00
S'\x00\x00\x00\x00\x00\x00\x00\x00'
p550
tp551
bsg82
(dp552
g200
(iTrieNode
TrieNode
p553
(dp554
g69
I01
sg70
g4
(g5
(I0
tp555
g7
tp556
Rp557
(I1
(L1L
L2L
tp558
g77
I00
S'\x00\x00\x00\x00\x01\x00\x00\x00'
p559
tp560
bsg82
(dp561
sbssbssbsVu
p562
(iTrieNode
TrieNode
p563
(dp564
g69
I00
sg70
g4
(g5
(I0
tp565
g7
tp566
Rp567
(I1
(L1L
L2L
tp568
g77
I00
S'\x00\x00\x00\x00\x00\x00\x00\x00'
p569
tp570
bsg82
(dp571
g104
(iTrieNode
TrieNode
p572
(dp573
g69
I00
sg70
g4
(g5
(I0
tp574
g7
tp575
Rp576
(I1
(L1L
L2L
tp577
g77
I00
S'\x00\x00\x00\x00\x00\x00\x00\x00'
p578
tp579
bsg82
(dp580
g424
(iTrieNode
TrieNode
p581
(dp582
g69
I00
sg70
g4
(g5
(I0
tp583
g7
tp584
Rp585
(I1
(L1L
L2L
tp586
g77
I00
S'\x00\x00\x00\x00\x00\x00\x00\x00'
p587
tp588
bsg82
(dp589
g190
(iTrieNode
TrieNode
p590
(dp591
g69
I00
sg70
g4
(g5
(I0
tp592
g7
tp593
Rp594
(I1
(L1L
L2L
tp595
g77
I00
S'\x00\x00\x00\x00\x00\x00\x00\x00'
p596
tp597
bsg82
(dp598
g332
(iTrieNode
TrieNode
p599
(dp600
g69
I01
sg70
g4
(g5
(I0
tp601
g7
tp602
Rp603
(I1
(L1L
L2L
tp604
g77
I00
S'\x02\x00\x00\x00\x00\x00\x00\x00'
p605
tp606
bsg82
(dp607
sbssbssbssbssbsg200
(iTrieNode
TrieNode
p608
(dp609
g69
I00
sg70
g4
(g5
(I0
tp610
g7
tp611
Rp612
(I1
(L1L
L2L
tp613
g77
I00
S'\x00\x00\x00\x00\x00\x00\x00\x00'
p614
tp615
bsg82
(dp616
g190
(iTrieNode
TrieNode
p617
(dp618
g69
I00
sg70
g4
(g5
(I0
tp619
g7
tp620
Rp621
(I1
(L1L
L2L
tp622
g77
I00
S'\x00\x00\x00\x00\x00\x00\x00\x00'
p623
tp624
bsg82
(dp625
g200
(iTrieNode
TrieNode
p626
(dp627
g69
I01
sg70
g4
(g5
(I0
tp628
g7
tp629
Rp630
(I1
(L1L
L2L
tp631
g77
I00
S'\x01\x00\x00\x00\x00\x00\x00\x00'
p632
tp633
bsg82
(dp634
sbssbssbssbsg94
(iTrieNode
TrieNode
p635
(dp636
g69
I00
sg70
g4
(g5
(I0
tp637
g7
tp638
Rp639
(I1
(L1L
L2L
tp640
g77
I00
S'\x00\x00\x00\x00\x00\x00\x00\x00'
p641
tp642
bsg82
(dp643
g200
(iTrieNode
TrieNode
p644
(dp645
g69
I00
sg70
g4
(g5
(I0
tp646
g7
tp647
Rp648
(I1
(L1L
L2L
tp649
g77
I00
S'\x00\x00\x00\x00\x00\x00\x00\x00'
p650
tp651
bsg82
(dp652
g200
(iTrieNode
TrieNode
p653
(dp654
g69
I00
sg70
g4
(g5
(I0
tp655
g7
tp656
Rp657
(I1
(L1L
L2L
tp658
g77
I00
S'\x00\x00\x00\x00\x00\x00\x00\x00'
p659
tp660
bsg82
(dp661
g152
(iTrieNode
TrieNode
p662
(dp663
g69
I01
sg70
g4
(g5
(I0
tp664
g7
tp665
Rp666
(I1
(L1L
L2L
tp667
g77
I00
S'\x00\x00\x00\x00\x02\x00\x00\x00'
p668
tp669
bsg82
(dp670
sbssbssbsg405
(iTrieNode
TrieNode
p671
(dp672
g69
I00
sg70
g4
(g5
(I0
tp673
g7
tp674
Rp675
(I1
(L1L
L2L
tp676
g77
I00
S'\x00\x00\x00\x00\x00\x00\x00\x00'
p677
tp678
bsg82
(dp679
g190
(iTrieNode
TrieNode
p680
(dp681
g69
I00
sg70
g4
(g5
(I0
tp682
g7
tp683
Rp684
(I1
(L1L
L2L
tp685
g77
I00
S'\x00\x00\x00\x00\x00\x00\x00\x00'
p686
tp687
bsg82
(dp688
g104
(iTrieNode
TrieNode
p689
(dp690
g69
I01
sg70
g4
(g5
(I0
tp691
g7
tp692
Rp693
(I1
(L1L
L2L
tp694
g77
I00
S'\x00\x00\x00\x00\x01\x00\x00\x00'
p695
tp696
bsg82
(dp697
sbssbssbssbsg488
(iTrieNode
TrieNode
p698
(dp699
g69
I00
sg70
g4
(g5
(I0
tp700
g7
tp701
Rp702
(I1
(L1L
L2L
tp703
g77
I00
S'\x00\x00\x00\x00\x00\x00\x00\x00'
p704
tp705
bsg82
(dp706
g200
(iTrieNode
TrieNode
p707
(dp708
g69
I00
sg70
g4
(g5
(I0
tp709
g7
tp710
Rp711
(I1
(L1L
L2L
tp712
g77
I00
S'\x00\x00\x00\x00\x00\x00\x00\x00'
p713
tp714
bsg82
(dp715
g152
(iTrieNode
TrieNode
p716
(dp717
g69
I01
sg70
g4
(g5
(I0
tp718
g7
tp719
Rp720
(I1
(L1L
L2L
tp721
g77
I00
S'\x01\x00\x00\x00\x00\x00\x00\x00'
p722
tp723
bsg82
(dp724
sbssbssbsg405
(iTrieNode
TrieNode
p725
(dp726
g69
I00
sg70
g4
(g5
(I0
tp727
g7
tp728
Rp729
(I1
(L1L
L2L
tp730
g77
I00
S'\x00\x00\x00\x00\x00\x00\x00\x00'
p731
tp732
bsg82
(dp733
Vp
p734
(iTrieNode
TrieNode
p735
(dp736
g69
I00
sg70
g4
(g5
(I0
tp737
g7
tp738
Rp739
(I1
(L1L
L2L
tp740
g77
I00
S'\x00\x00\x00\x00\x00\x00\x00\x00'
p741
tp742
bsg82
(dp743
g734
(iTrieNode
TrieNode
p744
(dp745
g69
I00
sg70
g4
(g5
(I0
tp746
g7
tp747
Rp748
(I1
(L1L
L2L
tp749
g77
I00
S'\x00\x00\x00\x00\x00\x00\x00\x00'
p750
tp751
bsg82
(dp752
g405
(iTrieNode
TrieNode
p753
(dp754
g69
I00
sg70
g4
(g5
(I0
tp755
g7
tp756
Rp757
(I1
(L1L
L2L
tp758
g77
I00
S'\x00\x00\x00\x00\x00\x00\x00\x00'
p759
tp760
bsg82
(dp761
g248
(iTrieNode
TrieNode
p762
(dp763
g69
I00
sg70
g4
(g5
(I0
tp764
g7
tp765
Rp766
(I1
(L1L
L2L
tp767
g77
I00
S'\x00\x00\x00\x00\x00\x00\x00\x00'
p768
tp769
bsg82
(dp770
g332
(iTrieNode
TrieNode
p771
(dp772
g69
I00
sg70
g4
(g5
(I0
tp773
g7
tp774
Rp775
(I1
(L1L
L2L
tp776
g77
I00
S'\x00\x00\x00\x00\x00\x00\x00\x00'
p777
tp778
bsg82
(dp779
g152
(iTrieNode
TrieNode
p780
(dp781
g69
I01
sg70
g4
(g5
(I0
tp782
g7
tp783
Rp784
(I1
(L1L
L2L
tp785
g77
I00
S'\x01\x00\x00\x00\x00\x00\x00\x00'
p786
tp787
bsg82
(dp788
sbssbssbssbssbssbsg229
(iTrieNode
TrieNode
p789
(dp790
g69
I01
sg70
g4
(g5
(I0
tp791
g7
tp792
Rp793
(I1
(L1L
L2L
tp794
g77
I00
S'\x01\x00\x00\x00\x00\x00\x00\x00'
p795
tp796
bsg82
(dp797
sbssbsg104
(iTrieNode
TrieNode
p798
(dp799
g69
I00
sg70
g4
(g5
(I0
tp800
g7
tp801
Rp802
(I1
(L1L
L2L
tp803
g77
I00
S'\x00\x00\x00\x00\x00\x00\x00\x00'
p804
tp805
bsg82
(dp806
g332
(iTrieNode
TrieNode
p807
(dp808
g69
I00
sg70
g4
(g5
(I0
tp809
g7
tp810
Rp811
(I1
(L1L
L2L
tp812
g77
I00
S'\x00\x00\x00\x00\x00\x00\x00\x00'
p813
tp814
bsg82
(dp815
g124
(iTrieNode
TrieNode
p816
(dp817
g69
I00
sg70
g4
(g5
(I0
tp818
g7
tp819
Rp820
(I1
(L1L
L2L
tp821
g77
I00
S'\x00\x00\x00\x00\x00\x00\x00\x00'
p822
tp823
bsg82
(dp824
g200
(iTrieNode
TrieNode
p825
(dp826
g69
I01
sg70
g4
(g5
(I0
tp827
g7
tp828
Rp829
(I1
(L1L
L2L
tp830
g77
I00
S'\x00\x00\x00\x00\x01\x00\x00\x00'
p831
tp832
bsg82
(dp833
sbssbsg424
(iTrieNode
TrieNode
p834
(dp835
g69
I00
sg70
g4
(g5
(I0
tp836
g7
tp837
Rp838
(I1
(L1L
L2L
tp839
g77
I00
S'\x00\x00\x00\x00\x00\x00\x00\x00'
p840
tp841
bsg82
(dp842
g525
(iTrieNode
TrieNode
p843
(dp844
g69
I00
sg70
g4
(g5
(I0
tp845
g7
tp846
Rp847
(I1
(L1L
L2L
tp848
g77
I00
S'\x00\x00\x00\x00\x00\x00\x00\x00'
p849
tp850
bsg82
(dp851
g152
(iTrieNode
TrieNode
p852
(dp853
g69
I01
sg70
g4
(g5
(I0
tp854
g7
tp855
Rp856
(I1
(L1L
L2L
tp857
g77
I00
S'\x00\x00\x00\x00\x01\x00\x00\x00'
p858
tp859
bsg82
(dp860
sbssbssbssbsg200
(iTrieNode
TrieNode
p861
(dp862
g69
I00
sg70
g4
(g5
(I0
tp863
g7
tp864
Rp865
(I1
(L1L
L2L
tp866
g77
I00
S'\x00\x00\x00\x00\x00\x00\x00\x00'
p867
tp868
bsg82
(dp869
g200
(iTrieNode
TrieNode
p870
(dp871
g69
I00
sg70
g4
(g5
(I0
tp872
g7
tp873
Rp874
(I1
(L1L
L2L
tp875
g77
I00
S'\x00\x00\x00\x00\x00\x00\x00\x00'
p876
tp877
bsg82
(dp878
g114
(iTrieNode
TrieNode
p879
(dp880
g69
I01
sg70
g4
(g5
(I0
tp881
g7
tp882
Rp883
(I1
(L1L
L2L
tp884
g77
I00
S'\x01\x00\x00\x00\x00\x00\x00\x00'
p885
tp886
bsg82
(dp887
sbssbssbsg405
(iTrieNode
TrieNode
p888
(dp889
g69
I00
sg70
g4
(g5
(I0
tp890
g7
tp891
Rp892
(I1
(L1L
L2L
tp893
g77
I00
S'\x00\x00\x00\x00\x00\x00\x00\x00'
p894
tp895
bsg82
(dp896
g152
(iTrieNode
TrieNode
p897
(dp898
g69
I01
sg70
g4
(g5
(I0
tp899
g7
tp900
Rp901
(I1
(L1L
L2L
tp902
g77
I00
S'\x02\x00\x00\x00\x01\x00\x00\x00'
p903
tp904
bsg82
(dp905
sbssbssbsg734
(iTrieNode
TrieNode
p906
(dp907
g69
I00
sg70
g4
(g5
(I0
tp908
g7
tp909
Rp910
(I1
(L1L
L2L
tp911
g77
I00
S'\x00\x00\x00\x00\x00\x00\x00\x00'
p912
tp913
bsg82
(dp914
g488
(iTrieNode
TrieNode
p915
(dp916
g69
I00
sg70
g4
(g5
(I0
tp917
g7
tp918
Rp919
(I1
(L1L
L2L
tp920
g77
I00
S'\x00\x00\x00\x00\x00\x00\x00\x00'
p921
tp922
bsg82
(dp923
g200
(iTrieNode
TrieNode
p924
(dp925
g69
I00
sg70
g4
(g5
(I0
tp926
g7
tp927
Rp928
(I1
(L1L
L2L
tp929
g77
I00
S'\x00\x00\x00\x00\x00\x00\x00\x00'
p930
tp931
bsg82
(dp932
g84
(iTrieNode
TrieNode
p933
(dp934
g69
I00
sg70
g4
(g5
(I0
tp935
g7
tp936
Rp937
(I1
(L1L
L2L
tp938
g77
I00
S'\x00\x00\x00\x00\x00\x00\x00\x00'
p939
tp940
bsg82
(dp941
g248
(iTrieNode
TrieNode
p942
(dp943
g69
I00
sg70
g4
(g5
(I0
tp944
g7
tp945
Rp946
(I1
(L1L
L2L
tp947
g77
I00
S'\x00\x00\x00\x00\x00\x00\x00\x00'
p948
tp949
bsg82
(dp950
g562
(iTrieNode
TrieNode
p951
(dp952
g69
I00
sg70
g4
(g5
(I0
tp953
g7
tp954
Rp955
(I1
(L1L
L2L
tp956
g77
I00
S'\x00\x00\x00\x00\x00\x00\x00\x00'
p957
tp958
bsg82
(dp959
g190
(iTrieNode
TrieNode
p960
(dp961
g69
I01
sg70
g4
(g5
(I0
tp962
g7
tp963
Rp964
(I1
(L1L
L2L
tp965
g77
I00
S'\x00\x00\x00\x00\x01\x00\x00\x00'
p966
tp967
bsg82
(dp968
sbssbssbssbssbssbssbsg190
(iTrieNode
TrieNode
p969
(dp970
g69
I00
sg70
g4
(g5
(I0
tp971
g7
tp972
Rp973
(I1
(L1L
L2L
tp974
g77
I00
S'\x00\x00\x00\x00\x00\x00\x00\x00'
p975
tp976
bsg82
(dp977
g562
(iTrieNode
TrieNode
p978
(dp979
g69
I00
sg70
g4
(g5
(I0
tp980
g7
tp981
Rp982
(I1
(L1L
L2L
tp983
g77
I00
S'\x00\x00\x00\x00\x00\x00\x00\x00'
p984
tp985
bsg82
(dp986
g488
(iTrieNode
TrieNode
p987
(dp988
g69
I00
sg70
g4
(g5
(I0
tp989
g7
tp990
Rp991
(I1
(L1L
L2L
tp992
g77
I00
S'\x00\x00\x00\x00\x00\x00\x00\x00'
p993
tp994
bsg82
(dp995
g200
(iTrieNode
TrieNode
p996
(dp997
g69
I01
sg70
g4
(g5
(I0
tp998
g7
tp999
Rp1000
(I1
(L1L
L2L
tp1001
g77
I00
S'\x01\x00\x00\x00\x00\x00\x00\x00'
p1002
tp1003
bsg82
(dp1004
sbssbssbssbsg152
(iTrieNode
TrieNode
p1005
(dp1006
g69
I00
sg70
g4
(g5
(I0
tp1007
g7
tp1008
Rp1009
(I1
(L1L
L2L
tp1010
g77
I00
S'\x00\x00\x00\x00\x00\x00\x00\x00'
p1011
tp1012
bsg82
(dp1013
g525
(iTrieNode
TrieNode
p1014
(dp1015
g69
I00
sg70
g4
(g5
(I0
tp1016
g7
tp1017
Rp1018
(I1
(L1L
L2L
tp1019
g77
I00
S'\x00\x00\x00\x00\x00\x00\x00\x00'
p1020
tp1021
bsg82
(dp1022
g200
(iTrieNode
TrieNode
p1023
(dp1024
g69
I01
sg70
g4
(g5
(I0
tp1025
g7
tp1026
Rp1027
(I1
(L1L
L2L
tp1028
g77
I00
S'\x01\x00\x00\x00\x00\x00\x00\x00'
p1029
tp1030
bsg82
(dp1031
sbssbsg405
(iTrieNode
TrieNode
p1032
(dp1033
g69
I01
sg70
g4
(g5
(I0
tp1034
g7
tp1035
Rp1036
(I1
(L1L
L2L
tp1037
g77
I00
S'\x00\x00\x00\x00\x01\x00\x00\x00'
p1038
tp1039
bsg82
(dp1040
sbssbsVw
p1041
(iTrieNode
TrieNode
p1042
(dp1043
g69
I00
sg70
g4
(g5
(I0
tp1044
g7
tp1045
Rp1046
(I1
(L1L
L2L
tp1047
g77
I00
S'\x00\x00\x00\x00\x00\x00\x00\x00'
p1048
tp1049
bsg82
(dp1050
g84
(iTrieNode
TrieNode
p1051
(dp1052
g69
I01
sg70
g4
(g5
(I0
tp1053
g7
tp1054
Rp1055
(I1
(L1L
L2L
tp1056
g77
I00
S'\x00\x00\x00\x00\x02\x00\x00\x00'
p1057
tp1058
bsg82
(dp1059
sbsg405
(iTrieNode
TrieNode
p1060
(dp1061
g69
I00
sg70
g4
(g5
(I0
tp1062
g7
tp1063
Rp1064
(I1
(L1L
L2L
tp1065
g77
I00
S'\x00\x00\x00\x00\x00\x00\x00\x00'
p1066
tp1067
bsg82
(dp1068
g190
(iTrieNode
TrieNode
p1069
(dp1070
g69
I00
sg70
g4
(g5
(I0
tp1071
g7
tp1072
Rp1073
(I1
(L1L
L2L
tp1074
g77
I00
S'\x00\x00\x00\x00\x00\x00\x00\x00'
p1075
tp1076
bsg82
(dp1077
g488
(iTrieNode
TrieNode
p1078
(dp1079
g69
I00
sg70
g4
(g5
(I0
tp1080
g7
tp1081
Rp1082
(I1
(L1L
L2L
tp1083
g77
I00
S'\x00\x00\x00\x00\x00\x00\x00\x00'
p1084
tp1085
bsg82
(dp1086
g114
(iTrieNode
TrieNode
p1087
(dp1088
g69
I01
sg70
g4
(g5
(I0
tp1089
g7
tp1090
Rp1091
(I1
(L1L
L2L
tp1092
g77
I00
S'\x01\x00\x00\x00\x00\x00\x00\x00'
p1093
tp1094
bsg82
(dp1095
sbssbssbssbssbsg322
(iTrieNode
TrieNode
p1096
(dp1097
g69
I00
sg70
g4
(g5
(I0
tp1098
g7
tp1099
Rp1100
(I1
(L1L
L2L
tp1101
g77
I00
S'\x00\x00\x00\x00\x00\x00\x00\x00'
p1102
tp1103
bsg82
(dp1104
g405
(iTrieNode
TrieNode
p1105
(dp1106
g69
I00
sg70
g4
(g5
(I0
tp1107
g7
tp1108
Rp1109
(I1
(L1L
L2L
tp1110
g77
I00
S'\x00\x00\x00\x00\x00\x00\x00\x00'
p1111
tp1112
bsg82
(dp1113
g562
(iTrieNode
TrieNode
p1114
(dp1115
g69
I01
sg70
g4
(g5
(I0
tp1116
g7
tp1117
Rp1118
(I1
(L1L
L2L
tp1119
g77
I00
S'\x01\x00\x00\x00\x02\x00\x00\x00'
p1120
tp1121
bsg82
(dp1122
sbssbssbssbsb.